target datalayout = "e-m:e-p270:32:32-p271:32:32-p272:64:64-i64:64-i128:128-f80:128-n8:16:32:64-S128"
target triple = "x86_64-unknown-linux-gnu"

%"class.datalog::entry_storage" = type { i32, i32, i64, %class.svector, %class.hashtable, i64 }
%class.svector = type { %class.vector }
%class.vector = type { ptr }
%class.hashtable = type { %class.core_hashtable.base, [4 x i8] }
%class.core_hashtable.base = type <{ %"class.datalog::entry_storage::offset_hash_proc.base", [4 x i8], %"class.datalog::entry_storage::offset_eq_proc.base", [4 x i8], ptr, i32, i32, i32 }>
%"class.datalog::entry_storage::offset_hash_proc.base" = type <{ ptr, i32 }>
%"class.datalog::entry_storage::offset_eq_proc.base" = type <{ ptr, i32 }>
%"class.datalog::sparse_table::column_layout" = type <{ %class.svector.0, i32, i32, i32, [4 x i8] }>
%class.svector.0 = type { %class.vector.1 }
%class.vector.1 = type { ptr }
%"class.datalog::table_signature" = type <{ %"class.datalog::tr_infrastructure<datalog::table_traits>::signature_base", i32, [4 x i8] }>
%"class.datalog::tr_infrastructure<datalog::table_traits>::signature_base" = type { %class.svector.2 }
%class.svector.2 = type { %class.vector.3 }
%class.vector.3 = type { ptr }
%"class.datalog::sparse_table" = type { %"class.datalog::table_base.base", [4 x i8], %"class.datalog::sparse_table::column_layout", i32, %"class.datalog::entry_storage", %class.map }
%"class.datalog::table_base.base" = type { %"class.datalog::tr_infrastructure<datalog::table_traits>::base_ancestor.base" }
%"class.datalog::tr_infrastructure<datalog::table_traits>::base_ancestor.base" = type <{ ptr, ptr, %"class.datalog::table_signature", i32 }>
%class.map = type { %class.table2map }
%class.table2map = type { %class.core_hashtable.4 }
%class.core_hashtable.4 = type <{ ptr, i32, i32, i32, [4 x i8] }>
%"class.datalog::table_base::iterator" = type { %class.ref }
%class.ref = type { ptr }
%"class.datalog::sparse_table::our_iterator_core" = type { %"class.datalog::table_base::iterator_core.base", ptr, ptr, i32, %"class.datalog::sparse_table::our_iterator_core::our_row", ptr }
%"class.datalog::table_base::iterator_core.base" = type <{ ptr, i32 }>
%"class.datalog::sparse_table::our_iterator_core::our_row" = type { %"class.datalog::table_base::row_interface", ptr }
%"class.datalog::table_base::row_interface" = type { ptr, ptr }
%"class.datalog::table_base::iterator_core" = type <{ ptr, i32, [4 x i8] }>

@_ZTVN7datalog10table_base13row_interfaceE = external unnamed_addr constant { [9 x ptr] }, align 8

; Function Attrs: mustprogress nounwind uwtable
define linkonce_odr hidden void @_ZN7datalog10table_base13iterator_core7inc_refEv(ptr noundef nonnull align 8 dereferenceable(12) %this) #5 comdat align 2 {
entry:
  %this.addr = alloca ptr, align 8
  store ptr %this, ptr %this.addr, align 8
  %this1 = load ptr, ptr %this.addr, align 8
  %m_ref_cnt = getelementptr inbounds %"class.datalog::table_base::iterator_core", ptr %this1, i32 0, i32 1
  %0 = load i32, ptr %m_ref_cnt, align 8
  %inc = add i32 %0, 1
  store i32 %inc, ptr %m_ref_cnt, align 8
  ret void
}

; Function Attrs: mustprogress nounwind uwtable
define linkonce_odr hidden noundef ptr @_ZN6vectorIcLb0EmE5beginEv(ptr noundef nonnull align 8 dereferenceable(8) %this) #5 comdat align 2 {
entry:
  %this.addr = alloca ptr, align 8
  store ptr %this, ptr %this.addr, align 8
  %this1 = load ptr, ptr %this.addr, align 8
  %m_data = getelementptr inbounds %class.vector, ptr %this1, i32 0, i32 0
  %0 = load ptr, ptr %m_data, align 8
  ret ptr %0
}

; Function Attrs: mustprogress uwtable
define linkonce_odr hidden void @_ZN3refIN7datalog10table_base13iterator_coreEE7inc_refEv(ptr noundef nonnull align 8 dereferenceable(8) %this) #4 comdat align 2 {
entry:
  %this.addr = alloca ptr, align 8
  store ptr %this, ptr %this.addr, align 8
  %this1 = load ptr, ptr %this.addr, align 8
  %m_ptr = getelementptr inbounds %class.ref, ptr %this1, i32 0, i32 0
  %0 = load ptr, ptr %m_ptr, align 8
  %tobool = icmp ne ptr %0, null
  br i1 %tobool, label %if.then, label %if.end

if.then:                                          ; preds = %entry
  %m_ptr2 = getelementptr inbounds %class.ref, ptr %this1, i32 0, i32 0
  %1 = load ptr, ptr %m_ptr2, align 8
  call void @_ZN7datalog10table_base13iterator_core7inc_refEv(ptr noundef nonnull align 8 dereferenceable(12) %1)
  br label %if.end

if.end:                                           ; preds = %if.then, %entry
  ret void
}

; Function Attrs: mustprogress nounwind uwtable
define linkonce_odr hidden noundef ptr @_ZN7datalog13entry_storage3getEm(ptr noundef nonnull align 8 dereferenceable(88) %this, i64 noundef %ofs) #5 comdat align 2 {
entry:
  %this.addr = alloca ptr, align 8
  %ofs.addr = alloca i64, align 8
  store ptr %this, ptr %this.addr, align 8
  store i64 %ofs, ptr %ofs.addr, align 8
  %this1 = load ptr, ptr %this.addr, align 8
  %m_data = getelementptr inbounds %"class.datalog::entry_storage", ptr %this1, i32 0, i32 3
  %call = call noundef ptr @_ZN6vectorIcLb0EmE5beginEv(ptr noundef nonnull align 8 dereferenceable(8) %m_data)
  %0 = load i64, ptr %ofs.addr, align 8
  %add.ptr = getelementptr inbounds i8, ptr %call, i64 %0
  ret ptr %add.ptr
}

; Function Attrs: mustprogress uwtable
define linkonce_odr hidden void @_ZN3refIN7datalog10table_base13iterator_coreEEC2EPS2_(ptr noundef nonnull align 8 dereferenceable(8) %this, ptr noundef %ptr) unnamed_addr #4 comdat align 2 {
entry:
  %this.addr = alloca ptr, align 8
  %ptr.addr = alloca ptr, align 8
  store ptr %this, ptr %this.addr, align 8
  store ptr %ptr, ptr %ptr.addr, align 8
  %this1 = load ptr, ptr %this.addr, align 8
  %m_ptr = getelementptr inbounds %class.ref, ptr %this1, i32 0, i32 0
  %0 = load ptr, ptr %ptr.addr, align 8
  store ptr %0, ptr %m_ptr, align 8
  call void @_ZN3refIN7datalog10table_base13iterator_coreEE7inc_refEv(ptr noundef nonnull align 8 dereferenceable(8) %this1)
  ret void
}

; Function Attrs: mustprogress nounwind uwtable
define linkonce_odr hidden void @_ZN7datalog10table_base13row_interfaceC2ERKS0_(ptr noundef nonnull align 8 dereferenceable(16) %this, ptr noundef nonnull align 8 dereferenceable(36) %parent_table) unnamed_addr #5 comdat align 2 {
entry:
  %this.addr = alloca ptr, align 8
  %parent_table.addr = alloca ptr, align 8
  store ptr %this, ptr %this.addr, align 8
  store ptr %parent_table, ptr %parent_table.addr, align 8
  %this1 = load ptr, ptr %this.addr, align 8
  store ptr getelementptr inbounds ({ [9 x ptr] }, ptr @_ZTVN7datalog10table_base13row_interfaceE, i32 0, i32 0, i32 2), ptr %this1, align 8
  %m_parent_table = getelementptr inbounds %"class.datalog::table_base::row_interface", ptr %this1, i32 0, i32 1
  %0 = load ptr, ptr %parent_table.addr, align 8
  store ptr %0, ptr %m_parent_table, align 8
  ret void
}

; Function Attrs: mustprogress uwtable
define linkonce_odr hidden noundef ptr @_ZNK7datalog13entry_storage3getEm(ptr noundef nonnull align 8 dereferenceable(88) %this, i64 noundef %ofs) #4 comdat align 2 {
entry:
  %this.addr = alloca ptr, align 8
  %ofs.addr = alloca i64, align 8
  store ptr %this, ptr %this.addr, align 8
  store i64 %ofs, ptr %ofs.addr, align 8
  %this1 = load ptr, ptr %this.addr, align 8
  %0 = load i64, ptr %ofs.addr, align 8
  %call = call noundef ptr @_ZN7datalog13entry_storage3getEm(ptr noundef nonnull align 8 dereferenceable(88) %this1, i64 noundef %0)
  ret ptr %call
}

; Function Attrs: mustprogress nounwind uwtable
define linkonce_odr hidden noundef i64 @_ZNK7datalog13entry_storage17after_last_offsetEv(ptr noundef nonnull align 8 dereferenceable(88) %this) #5 comdat align 2 {
entry:
  %this.addr = alloca ptr, align 8
  store ptr %this, ptr %this.addr, align 8
  %this1 = load ptr, ptr %this.addr, align 8
  %m_reserve = getelementptr inbounds %"class.datalog::entry_storage", ptr %this1, i32 0, i32 5
  %0 = load i64, ptr %m_reserve, align 8
  %cmp = icmp eq i64 %0, 4294967295
  br i1 %cmp, label %cond.true, label %cond.false

cond.true:                                        ; preds = %entry
  %m_data_size = getelementptr inbounds %"class.datalog::entry_storage", ptr %this1, i32 0, i32 2
  %1 = load i64, ptr %m_data_size, align 8
  br label %cond.end

cond.false:                                       ; preds = %entry
  %m_reserve2 = getelementptr inbounds %"class.datalog::entry_storage", ptr %this1, i32 0, i32 5
  %2 = load i64, ptr %m_reserve2, align 8
  br label %cond.end

cond.end:                                         ; preds = %cond.false, %cond.true
  %cond = phi i64 [ %1, %cond.true ], [ %2, %cond.false ]
  ret i64 %cond
}

; Function Attrs: mustprogress uwtable
define linkonce_odr hidden void @_ZN7datalog10table_base8iteratorC2EPNS0_13iterator_coreE(ptr noundef nonnull align 8 dereferenceable(8) %this, ptr noundef %core) unnamed_addr #4 comdat align 2 {
entry:
  %this.addr = alloca ptr, align 8
  %core.addr = alloca ptr, align 8
  store ptr %this, ptr %this.addr, align 8
  store ptr %core, ptr %core.addr, align 8
  %this1 = load ptr, ptr %this.addr, align 8
  %m_core = getelementptr inbounds %"class.datalog::table_base::iterator", ptr %this1, i32 0, i32 0
  %0 = load ptr, ptr %core.addr, align 8
  call void @_ZN3refIN7datalog10table_base13iterator_coreEEC2EPS2_(ptr noundef nonnull align 8 dereferenceable(8) %m_core, ptr noundef %0)
  ret void
}

; Function Attrs: mustprogress nounwind uwtable
define linkonce_odr hidden void @_ZN7datalog10table_base13iterator_coreD2Ev(ptr noundef nonnull align 8 dereferenceable(12) %this) unnamed_addr #5 comdat align 2 {
entry:
  %this.addr = alloca ptr, align 8
  store ptr %this, ptr %this.addr, align 8
  ret void
}

; Function Attrs: mustprogress uwtable
define linkonce_odr hidden void @_ZN7datalog12sparse_table17our_iterator_core7our_rowC2ERKS0_RKS1_(ptr noundef nonnull align 8 dereferenceable(24) %this, ptr noundef nonnull align 8 dereferenceable(184) %t, ptr noundef nonnull align 8 dereferenceable(72) %parent) unnamed_addr #4 comdat align 2 {
entry:
  %this.addr = alloca ptr, align 8
  %t.addr = alloca ptr, align 8
  %parent.addr = alloca ptr, align 8
  store ptr %this, ptr %this.addr, align 8
  store ptr %t, ptr %t.addr, align 8
  store ptr %parent, ptr %parent.addr, align 8
  %this1 = load ptr, ptr %this.addr, align 8
  %0 = load ptr, ptr %t.addr, align 8
  call void @_ZN7datalog10table_base13row_interfaceC2ERKS0_(ptr noundef nonnull align 8 dereferenceable(16) %this1, ptr noundef nonnull align 8 dereferenceable(36) %0)
  store ptr getelementptr inbounds ({ [9 x ptr] }, ptr @_ZTVN7datalog12sparse_table17our_iterator_core7our_rowE, i32 0, i32 0, i32 2), ptr %this1, align 8
  %m_parent = getelementptr inbounds %"class.datalog::sparse_table::our_iterator_core::our_row", ptr %this1, i32 0, i32 1
  %1 = load ptr, ptr %parent.addr, align 8
  store ptr %1, ptr %m_parent, align 8
  ret void
}

; Function Attrs: mustprogress uwtable
define linkonce_odr hidden noundef ptr @_ZNK7datalog13entry_storage5beginEv(ptr noundef nonnull align 8 dereferenceable(88) %this) #4 comdat align 2 {
entry:
  %this.addr = alloca ptr, align 8
  store ptr %this, ptr %this.addr, align 8
  %this1 = load ptr, ptr %this.addr, align 8
  %call = call noundef ptr @_ZNK7datalog13entry_storage3getEm(ptr noundef nonnull align 8 dereferenceable(88) %this1, i64 noundef 0)
  ret ptr %call
}

; Function Attrs: mustprogress uwtable
define linkonce_odr hidden noundef ptr @_ZNK7datalog13entry_storage10after_lastEv(ptr noundef nonnull align 8 dereferenceable(88) %this) #4 comdat align 2 {
entry:
  %this.addr = alloca ptr, align 8
  store ptr %this, ptr %this.addr, align 8
  %this1 = load ptr, ptr %this.addr, align 8
  %call = call noundef i64 @_ZNK7datalog13entry_storage17after_last_offsetEv(ptr noundef nonnull align 8 dereferenceable(88) %this1)
  %call2 = call noundef ptr @_ZNK7datalog13entry_storage3getEm(ptr noundef nonnull align 8 dereferenceable(88) %this1, i64 noundef %call)
  ret ptr %call2
}

; Function Attrs: mustprogress nounwind uwtable
define linkonce_odr hidden void @_ZN7datalog10table_base13iterator_coreC2Ev(ptr noundef nonnull align 8 dereferenceable(12) %this) unnamed_addr #5 comdat align 2 {
entry:
  %this.addr = alloca ptr, align 8
  store ptr %this, ptr %this.addr, align 8
  %this1 = load ptr, ptr %this.addr, align 8
  store ptr getelementptr inbounds ({ [8 x ptr] }, ptr @_ZTVN7datalog10table_base13iterator_coreE, i32 0, i32 0, i32 2), ptr %this1, align 8
  %m_ref_cnt = getelementptr inbounds %"class.datalog::table_base::iterator_core", ptr %this1, i32 0, i32 1
  store i32 0, ptr %m_ref_cnt, align 8
  ret void
}

; Function Attrs: mustprogress uwtable
define linkonce_odr hidden void @_ZN7datalog10table_base11mk_iteratorEPNS0_13iterator_coreE(ptr noalias sret(%"class.datalog::table_base::iterator") align 8 %agg.result, ptr noundef %core) #4 comdat align 2 {
entry:
  %result.ptr = alloca ptr, align 8
  %core.addr = alloca ptr, align 8
  store ptr %agg.result, ptr %result.ptr, align 8
  store ptr %core, ptr %core.addr, align 8
  %0 = load ptr, ptr %core.addr, align 8
  call void @_ZN7datalog10table_base8iteratorC2EPNS0_13iterator_coreE(ptr noundef nonnull align 8 dereferenceable(8) %agg.result, ptr noundef %0)
  ret void
}

; Function Attrs: mustprogress uwtable
define linkonce_odr hidden void @_ZN7datalog12sparse_table17our_iterator_coreC2ERKS0_b(ptr noundef nonnull align 8 dereferenceable(72) %this, ptr noundef nonnull align 8 dereferenceable(184) %t, i1 noundef zeroext %finished) unnamed_addr #4 comdat align 2 personality ptr @__gxx_personality_v0 {
entry:
  %this.addr = alloca ptr, align 8
  %t.addr = alloca ptr, align 8
  %finished.addr = alloca i8, align 1
  %exn.slot = alloca ptr, align 8
  %ehselector.slot = alloca i32, align 4
  store ptr %this, ptr %this.addr, align 8
  store ptr %t, ptr %t.addr, align 8
  %frombool = zext i1 %finished to i8
  store i8 %frombool, ptr %finished.addr, align 1
  %this1 = load ptr, ptr %this.addr, align 8
  call void @_ZN7datalog10table_base13iterator_coreC2Ev(ptr noundef nonnull align 8 dereferenceable(12) %this1)
  store ptr getelementptr inbounds ({ [8 x ptr] }, ptr @_ZTVN7datalog12sparse_table17our_iterator_coreE, i32 0, i32 0, i32 2), ptr %this1, align 8
  %m_end = getelementptr inbounds %"class.datalog::sparse_table::our_iterator_core", ptr %this1, i32 0, i32 1
  %0 = load ptr, ptr %t.addr, align 8
  %m_data = getelementptr inbounds %"class.datalog::sparse_table", ptr %0, i32 0, i32 4
  %call = invoke noundef ptr @_ZNK7datalog13entry_storage10after_lastEv(ptr noundef nonnull align 8 dereferenceable(88) %m_data)
          to label %invoke.cont unwind label %lpad

invoke.cont:                                      ; preds = %entry
  store ptr %call, ptr %m_end, align 8
  %m_ptr = getelementptr inbounds %"class.datalog::sparse_table::our_iterator_core", ptr %this1, i32 0, i32 2
  %1 = load i8, ptr %finished.addr, align 1
  %tobool = trunc i8 %1 to i1
  br i1 %tobool, label %cond.true, label %cond.false

cond.true:                                        ; preds = %invoke.cont
  %m_end2 = getelementptr inbounds %"class.datalog::sparse_table::our_iterator_core", ptr %this1, i32 0, i32 1
  %2 = load ptr, ptr %m_end2, align 8
  br label %cond.end

cond.false:                                       ; preds = %invoke.cont
  %3 = load ptr, ptr %t.addr, align 8
  %m_data3 = getelementptr inbounds %"class.datalog::sparse_table", ptr %3, i32 0, i32 4
  %call5 = invoke noundef ptr @_ZNK7datalog13entry_storage5beginEv(ptr noundef nonnull align 8 dereferenceable(88) %m_data3)
          to label %invoke.cont4 unwind label %lpad

invoke.cont4:                                     ; preds = %cond.false
  br label %cond.end

cond.end:                                         ; preds = %invoke.cont4, %cond.true
  %cond = phi ptr [ %2, %cond.true ], [ %call5, %invoke.cont4 ]
  store ptr %cond, ptr %m_ptr, align 8
  %m_fact_size = getelementptr inbounds %"class.datalog::sparse_table::our_iterator_core", ptr %this1, i32 0, i32 3
  %4 = load ptr, ptr %t.addr, align 8
  %m_fact_size6 = getelementptr inbounds %"class.datalog::sparse_table", ptr %4, i32 0, i32 3
  %5 = load i32, ptr %m_fact_size6, align 8
  store i32 %5, ptr %m_fact_size, align 8
  %m_row_obj = getelementptr inbounds %"class.datalog::sparse_table::our_iterator_core", ptr %this1, i32 0, i32 4
  %6 = load ptr, ptr %t.addr, align 8
  invoke void @_ZN7datalog12sparse_table17our_iterator_core7our_rowC2ERKS0_RKS1_(ptr noundef nonnull align 8 dereferenceable(24) %m_row_obj, ptr noundef nonnull align 8 dereferenceable(184) %6, ptr noundef nonnull align 8 dereferenceable(72) %this1)
          to label %invoke.cont7 unwind label %lpad

invoke.cont7:                                     ; preds = %cond.end
  %m_layout = getelementptr inbounds %"class.datalog::sparse_table::our_iterator_core", ptr %this1, i32 0, i32 5
  %7 = load ptr, ptr %t.addr, align 8
  %m_column_layout = getelementptr inbounds %"class.datalog::sparse_table", ptr %7, i32 0, i32 2
  store ptr %m_column_layout, ptr %m_layout, align 8
  ret void

lpad:                                             ; preds = %cond.end, %cond.false, %entry
  %8 = landingpad { ptr, i32 }
          cleanup
  %9 = extractvalue { ptr, i32 } %8, 0
  store ptr %9, ptr %exn.slot, align 8
  %10 = extractvalue { ptr, i32 } %8, 1
  store i32 %10, ptr %ehselector.slot, align 4
  call void @_ZN7datalog10table_base13iterator_coreD2Ev(ptr noundef nonnull align 8 dereferenceable(12) %this1) #3
  br label %eh.resume

eh.resume:                                        ; preds = %lpad
  %exn = load ptr, ptr %exn.slot, align 8
  %sel = load i32, ptr %ehselector.slot, align 4
  %lpad.val = insertvalue { ptr, i32 } poison, ptr %exn, 0
  %lpad.val8 = insertvalue { ptr, i32 } %lpad.val, i32 %sel, 1
  resume { ptr, i32 } %lpad.val8
}

; Function Attrs: mustprogress uwtable
define hidden void @_ZNK7datalog12sparse_table3endEv(ptr noalias sret(%"class.datalog::table_base::iterator") align 8 %agg.result, ptr noundef nonnull align 8 dereferenceable(184) %this) unnamed_addr #4 align 2 {
entry:
  %result.ptr = alloca ptr, align 8
  %this.addr = alloca ptr, align 8
  store ptr %agg.result, ptr %result.ptr, align 8
  store ptr %this, ptr %this.addr, align 8
  %this1 = load ptr, ptr %this.addr, align 8
  %call = call noalias noundef ptr @_ZN6memory8allocateEm(i64 noundef 72)
  call void @_ZN7datalog12sparse_table17our_iterator_coreC2ERKS0_b(ptr noundef nonnull align 8 dereferenceable(72) %call, ptr noundef nonnull align 8 dereferenceable(184) %this1, i1 noundef zeroext true)
  call void @_ZN7datalog10table_base11mk_iteratorEPNS0_13iterator_coreE(ptr sret(%"class.datalog::table_base::iterator") align 8 %agg.result, ptr noundef %call)
  ret void
}