; Function Attrs: mustprogress uwtable
define hidden void @_ZNK7datalog12sparse_table3endEv(ptr noalias nocapture writeonly sret(%"class.datalog::table_base::iterator") align 8 %agg.result, ptr noundef nonnull align 8 dereferenceable(184) %this) unnamed_addr #3 align 2 personality ptr @__gxx_personality_v0 {
_ZN7datalog10table_base11mk_iteratorEPNS0_13iterator_coreE.exit:
  %call = tail call noalias noundef ptr @_ZN6memory8allocateEm(i64 noundef 72)
  %m_ref_cnt.i.i = getelementptr inbounds i8, ptr %call, i64 8
  store ptr getelementptr inbounds ({ [8 x ptr] }, ptr @_ZTVN7datalog12sparse_table17our_iterator_coreE, i64 0, i32 0, i64 2), ptr %call, align 8
  %m_reserve.i.i.i = getelementptr inbounds i8, ptr %this, i64 152
  %0 = load i64, ptr %m_reserve.i.i.i, align 8
  %cmp.i.i.i = icmp eq i64 %0, 4294967295
  %m_data_size.i.i.i = getelementptr inbounds i8, ptr %this, i64 80
  %1 = load i64, ptr %m_data_size.i.i.i, align 8
  %cond.i.i.i = select i1 %cmp.i.i.i, i64 %1, i64 %0
  %m_data.i.i.i.i = getelementptr inbounds i8, ptr %this, i64 88
  %2 = load ptr, ptr %m_data.i.i.i.i, align 8
  %add.ptr.i.i.i.i = getelementptr inbounds i8, ptr %2, i64 %cond.i.i.i
  %m_end.i = getelementptr inbounds i8, ptr %call, i64 16
  store ptr %add.ptr.i.i.i.i, ptr %m_end.i, align 8
  %m_ptr.i = getelementptr inbounds i8, ptr %call, i64 24
  store ptr %add.ptr.i.i.i.i, ptr %m_ptr.i, align 8
  %m_fact_size.i = getelementptr inbounds i8, ptr %call, i64 32
  %m_fact_size6.i = getelementptr inbounds i8, ptr %this, i64 64
  %3 = load i32, ptr %m_fact_size6.i, align 8
  store i32 %3, ptr %m_fact_size.i, align 8
  %m_row_obj.i = getelementptr inbounds i8, ptr %call, i64 40
  %m_parent_table.i.i.i = getelementptr inbounds i8, ptr %call, i64 48
  store ptr %this, ptr %m_parent_table.i.i.i, align 8
  store ptr getelementptr inbounds ({ [9 x ptr] }, ptr @_ZTVN7datalog12sparse_table17our_iterator_core7our_rowE, i64 0, i32 0, i64 2), ptr %m_row_obj.i, align 8
  %m_parent.i.i = getelementptr inbounds i8, ptr %call, i64 56
  store ptr %call, ptr %m_parent.i.i, align 8
  %m_layout.i = getelementptr inbounds i8, ptr %call, i64 64
  %m_column_layout.i = getelementptr inbounds i8, ptr %this, i64 40
  store ptr %m_column_layout.i, ptr %m_layout.i, align 8
  tail call void @llvm.experimental.noalias.scope.decl(metadata !21)
  store ptr %call, ptr %agg.result, align 8, !alias.scope !21
  store i32 1, ptr %m_ref_cnt.i.i, align 8, !noalias !21
  ret void
}